; Function Attrs: nounwind uwtable
define ptr @l_Lean_IR_Borrow_InitParamMap_initBorrowIfNotExported(i8 noundef zeroext %0, ptr noundef %1) local_unnamed_addr #1 {
  %3 = icmp eq i8 %0, 0
  br i1 %3, label %4, label %7

4:                                                ; preds = %2
  %5 = getelementptr i8, ptr %1, i64 8
  %.val.i = load i64, ptr %5, align 8, !tbaa !13
  %6 = tail call ptr @l_Array_mapMUnsafe_map___at_Lean_IR_Borrow_InitParamMap_initBorrow___spec__1(i64 noundef %.val.i, i64 noundef 0, ptr noundef %1)
  br label %7

7:                                                ; preds = %2, %4
  %.0 = phi ptr [ %6, %4 ], [ %1, %2 ]
  ret ptr %.0
}